; Function Attrs: mustprogress uwtable
define internal noundef zeroext i1 @"_ZNSt17_Function_handlerIFddEZN8QuantLib14LsmBasisSystem15pathBasisSystemEmNS2_14PolynomialTypeEE3$_1E10_M_managerERSt9_Any_dataRKS6_St18_Manager_operation"(ptr nocapture noundef nonnull align 8 dereferenceable(16) %__dest, ptr nocapture noundef nonnull readonly align 8 dereferenceable(16) %__source, i32 noundef %__op) #0 align 2 {
entry:
  switch i32 %__op, label %sw.epilog [
    i32 0, label %sw.bb
    i32 1, label %sw.bb1
    i32 3, label %sw.bb6.i
    i32 2, label %sw.bb4.i
  ]

sw.bb:                                            ; preds = %entry
  store ptr @"_ZTIZN8QuantLib14LsmBasisSystem15pathBasisSystemEmNS0_14PolynomialTypeEE3$_1", ptr %__dest, align 8, !tbaa !13
  br label %sw.epilog

sw.bb1:                                           ; preds = %entry
  %__source.val = load ptr, ptr %__source, align 8, !tbaa !13
  store ptr %__source.val, ptr %__dest, align 8, !tbaa !13
  br label %sw.epilog

sw.bb4.i:                                         ; preds = %entry
  %__source.val5 = load ptr, ptr %__source, align 8
  %0 = getelementptr i8, ptr %__source.val5, i64 8
  %call5.val.i = load double, ptr %0, align 8
  %1 = getelementptr i8, ptr %__source.val5, i64 16
  %call5.val6.i = load i64, ptr %1, align 8
  %call.i.i.i = tail call noalias noundef nonnull dereferenceable(24) ptr @_Znwm(i64 noundef 24) #23
  store ptr getelementptr inbounds inrange(-16, 48) (i8, ptr @_ZTVN8QuantLib22GaussHermitePolynomialE, i64 16), ptr %call.i.i.i, align 8, !tbaa !20
  %mu_.i.i.i.i.i = getelementptr inbounds nuw i8, ptr %call.i.i.i, i64 8
  store double %call5.val.i, ptr %mu_.i.i.i.i.i, align 8, !tbaa !24
  %2 = getelementptr inbounds nuw i8, ptr %call.i.i.i, i64 16
  store i64 %call5.val6.i, ptr %2, align 8, !tbaa !26
  store ptr %call.i.i.i, ptr %__dest, align 8, !tbaa !13
  br label %sw.epilog

sw.bb6.i:                                         ; preds = %entry
  %__dest.val.i = load ptr, ptr %__dest, align 8, !tbaa !13
  %isnull.i.i = icmp eq ptr %__dest.val.i, null
  br i1 %isnull.i.i, label %sw.epilog, label %delete.notnull.i.i

delete.notnull.i.i:                               ; preds = %sw.bb6.i
  tail call void @_ZdlPvm(ptr noundef nonnull %__dest.val.i, i64 noundef 24) #26
  br label %sw.epilog

sw.epilog:                                        ; preds = %entry, %delete.notnull.i.i, %sw.bb6.i, %sw.bb4.i, %sw.bb1, %sw.bb
  ret i1 false
}